; Function Attrs: mustprogress nounwind uwtable
define dso_local void @_ZN4node6crypto13SecureContext23EnableTicketKeyCallbackERKN2v820FunctionCallbackInfoINS2_5ValueEEE(ptr nocapture noundef nonnull readonly align 8 dereferenceable(20) %args) #3 align 2 {
entry:
  %0 = load ptr, ptr %args, align 8
  %1 = load i64, ptr %0, align 8
  %sub.i17.i.i = add i64 %1, -1
  %2 = inttoptr i64 %sub.i17.i.i to ptr
  %3 = load i64, ptr %2, align 8
  %sub.i.i.i = add i64 %3, 11
  %4 = inttoptr i64 %sub.i.i.i to ptr
  %5 = load i16, ptr %4, align 2
  %conv.i.i.i = zext i16 %5 to i32
  %cmp.i.i = icmp eq i16 %5, 1040
  %sub.i.i = add nsw i32 %conv.i.i.i, -1057
  %cmp1.i.i = icmp ult i32 %sub.i.i, 1002
  %6 = select i1 %cmp.i.i, i1 true, i1 %cmp1.i.i
  br i1 %6, label %if.then.i.i, label %if.end.i.i

if.then.i.i:                                      ; preds = %entry
  %sub.i.i.i.i = add i64 %1, 31
  %7 = inttoptr i64 %sub.i.i.i.i to ptr
  %8 = load i64, ptr %7, align 8
  %9 = inttoptr i64 %8 to ptr
  br label %_ZN4node10BaseObject12FromJSObjectEN2v85LocalINS1_5ValueEEE.exit

if.end.i.i:                                       ; preds = %entry
  %call7.i.i = tail call noundef ptr @_ZN2v86Object38SlowGetAlignedPointerFromInternalFieldEi(ptr noundef nonnull align 1 dereferenceable(1) %0, i32 noundef 1) #20
  br label %_ZN4node10BaseObject12FromJSObjectEN2v85LocalINS1_5ValueEEE.exit

_ZN4node10BaseObject12FromJSObjectEN2v85LocalINS1_5ValueEEE.exit: ; preds = %if.then.i.i, %if.end.i.i
  %retval.i11.0.i = phi ptr [ %9, %if.then.i.i ], [ %call7.i.i, %if.end.i.i ]
  %cmp = icmp eq ptr %retval.i11.0.i, null
  br i1 %cmp, label %return, label %do.end

do.end:                                           ; preds = %_ZN4node10BaseObject12FromJSObjectEN2v85LocalINS1_5ValueEEE.exit
  %ctx_ = getelementptr inbounds i8, ptr %retval.i11.0.i, i64 32
  %10 = load ptr, ptr %ctx_, align 8
  %call12 = tail call i64 @SSL_CTX_callback_ctrl(ptr noundef %10, i32 noundef 72, ptr noundef nonnull @_ZN4node6crypto13SecureContext17TicketKeyCallbackEP6ssl_stPhS4_P17evp_cipher_ctx_stP11hmac_ctx_sti) #20
  br label %return

return:                                           ; preds = %_ZN4node10BaseObject12FromJSObjectEN2v85LocalINS1_5ValueEEE.exit, %do.end
  ret void
}